
relocate.elf:     file format elf32-littlearm


Disassembly of section .text:

00900000 <_start>:
  900000:	e59fd00c 	ldr	sp, [pc, #12]	; 900014 <halt+0x4>
  900004:	fa00005b 	blx	900178 <copy_data>
  900008:	fa00006c 	blx	9001c0 <clean_bss>
  90000c:	e59ff004 	ldr	pc, [pc, #4]	; 900018 <halt+0x8>

00900010 <halt>:
  900010:	eafffffe 	b	900010 <halt>
  900014:	80200000 	eorhi	r0, r0, r0
  900018:	00900155 	addseq	r0, r0, r5, asr r1

0090001c <clk_enable>:
  90001c:	b480      	push	{r7}
  90001e:	af00      	add	r7, sp, #0
  900020:	f244 0368 	movw	r3, #16488	; 0x4068
  900024:	f2c0 230c 	movt	r3, #524	; 0x20c
  900028:	f04f 32ff 	mov.w	r2, #4294967295	; 0xffffffff
  90002c:	601a      	str	r2, [r3, #0]
  90002e:	f244 036c 	movw	r3, #16492	; 0x406c
  900032:	f2c0 230c 	movt	r3, #524	; 0x20c
  900036:	f04f 32ff 	mov.w	r2, #4294967295	; 0xffffffff
  90003a:	601a      	str	r2, [r3, #0]
  90003c:	f244 0370 	movw	r3, #16496	; 0x4070
  900040:	f2c0 230c 	movt	r3, #524	; 0x20c
  900044:	f04f 32ff 	mov.w	r2, #4294967295	; 0xffffffff
  900048:	601a      	str	r2, [r3, #0]
  90004a:	f244 0374 	movw	r3, #16500	; 0x4074
  90004e:	f2c0 230c 	movt	r3, #524	; 0x20c
  900052:	f04f 32ff 	mov.w	r2, #4294967295	; 0xffffffff
  900056:	601a      	str	r2, [r3, #0]
  900058:	f244 0378 	movw	r3, #16504	; 0x4078
  90005c:	f2c0 230c 	movt	r3, #524	; 0x20c
  900060:	f04f 32ff 	mov.w	r2, #4294967295	; 0xffffffff
  900064:	601a      	str	r2, [r3, #0]
  900066:	f244 037c 	movw	r3, #16508	; 0x407c
  90006a:	f2c0 230c 	movt	r3, #524	; 0x20c
  90006e:	f04f 32ff 	mov.w	r2, #4294967295	; 0xffffffff
  900072:	601a      	str	r2, [r3, #0]
  900074:	f44f 4381 	mov.w	r3, #16512	; 0x4080
  900078:	f2c0 230c 	movt	r3, #524	; 0x20c
  90007c:	f04f 32ff 	mov.w	r2, #4294967295	; 0xffffffff
  900080:	601a      	str	r2, [r3, #0]
  900082:	46bd      	mov	sp, r7
  900084:	f85d 7b04 	ldr.w	r7, [sp], #4
  900088:	4770      	bx	lr
  90008a:	bf00      	nop

0090008c <led_init>:
  90008c:	b480      	push	{r7}
  90008e:	af00      	add	r7, sp, #0
  900090:	2368      	movs	r3, #104	; 0x68
  900092:	f2c0 230e 	movt	r3, #526	; 0x20e
  900096:	2205      	movs	r2, #5
  900098:	601a      	str	r2, [r3, #0]
  90009a:	f44f 733d 	mov.w	r3, #756	; 0x2f4
  90009e:	f2c0 230e 	movt	r3, #526	; 0x20e
  9000a2:	f241 02b0 	movw	r2, #4272	; 0x10b0
  9000a6:	601a      	str	r2, [r3, #0]
  9000a8:	f24c 0304 	movw	r3, #49156	; 0xc004
  9000ac:	f2c0 2309 	movt	r3, #521	; 0x209
  9000b0:	2208      	movs	r2, #8
  9000b2:	601a      	str	r2, [r3, #0]
  9000b4:	f44f 4340 	mov.w	r3, #49152	; 0xc000
  9000b8:	f2c0 2309 	movt	r3, #521	; 0x209
  9000bc:	2200      	movs	r2, #0
  9000be:	601a      	str	r2, [r3, #0]
  9000c0:	46bd      	mov	sp, r7
  9000c2:	f85d 7b04 	ldr.w	r7, [sp], #4
  9000c6:	4770      	bx	lr

009000c8 <led_on>:
  9000c8:	b480      	push	{r7}
  9000ca:	af00      	add	r7, sp, #0
  9000cc:	f44f 4340 	mov.w	r3, #49152	; 0xc000
  9000d0:	f2c0 2309 	movt	r3, #521	; 0x209
  9000d4:	f44f 4240 	mov.w	r2, #49152	; 0xc000
  9000d8:	f2c0 2209 	movt	r2, #521	; 0x209
  9000dc:	6812      	ldr	r2, [r2, #0]
  9000de:	f022 0208 	bic.w	r2, r2, #8
  9000e2:	601a      	str	r2, [r3, #0]
  9000e4:	46bd      	mov	sp, r7
  9000e6:	f85d 7b04 	ldr.w	r7, [sp], #4
  9000ea:	4770      	bx	lr

009000ec <led_off>:
  9000ec:	b480      	push	{r7}
  9000ee:	af00      	add	r7, sp, #0
  9000f0:	f44f 4340 	mov.w	r3, #49152	; 0xc000
  9000f4:	f2c0 2309 	movt	r3, #521	; 0x209
  9000f8:	f44f 4240 	mov.w	r2, #49152	; 0xc000
  9000fc:	f2c0 2209 	movt	r2, #521	; 0x209
  900100:	6812      	ldr	r2, [r2, #0]
  900102:	f042 0208 	orr.w	r2, r2, #8
  900106:	601a      	str	r2, [r3, #0]
  900108:	46bd      	mov	sp, r7
  90010a:	f85d 7b04 	ldr.w	r7, [sp], #4
  90010e:	4770      	bx	lr

00900110 <delay_short>:
  900110:	b480      	push	{r7}
  900112:	b083      	sub	sp, #12
  900114:	af00      	add	r7, sp, #0
  900116:	6078      	str	r0, [r7, #4]
  900118:	bf00      	nop
  90011a:	687b      	ldr	r3, [r7, #4]
  90011c:	1e5a      	subs	r2, r3, #1
  90011e:	607a      	str	r2, [r7, #4]
  900120:	2b00      	cmp	r3, #0
  900122:	d1fa      	bne.n	90011a <delay_short+0xa>
  900124:	370c      	adds	r7, #12
  900126:	46bd      	mov	sp, r7
  900128:	f85d 7b04 	ldr.w	r7, [sp], #4
  90012c:	4770      	bx	lr
  90012e:	bf00      	nop

00900130 <delay>:
  900130:	b580      	push	{r7, lr}
  900132:	b082      	sub	sp, #8
  900134:	af00      	add	r7, sp, #0
  900136:	6078      	str	r0, [r7, #4]
  900138:	e003      	b.n	900142 <delay+0x12>
  90013a:	f240 70ff 	movw	r0, #2047	; 0x7ff
  90013e:	f7ff ffe7 	bl	900110 <delay_short>
  900142:	687b      	ldr	r3, [r7, #4]
  900144:	1e5a      	subs	r2, r3, #1
  900146:	607a      	str	r2, [r7, #4]
  900148:	2b00      	cmp	r3, #0
  90014a:	d1f6      	bne.n	90013a <delay+0xa>
  90014c:	3708      	adds	r7, #8
  90014e:	46bd      	mov	sp, r7
  900150:	bd80      	pop	{r7, pc}
  900152:	bf00      	nop

00900154 <main>:
  900154:	b580      	push	{r7, lr}
  900156:	af00      	add	r7, sp, #0
  900158:	f7ff ff60 	bl	90001c <clk_enable>
  90015c:	f7ff ff96 	bl	90008c <led_init>
  900160:	20c8      	movs	r0, #200	; 0xc8
  900162:	f7ff ffe5 	bl	900130 <delay>
  900166:	f7ff ffaf 	bl	9000c8 <led_on>
  90016a:	20c8      	movs	r0, #200	; 0xc8
  90016c:	f7ff ffe0 	bl	900130 <delay>
  900170:	f7ff ffbc 	bl	9000ec <led_off>
  900174:	e7f4      	b.n	900160 <main+0xc>
  900176:	bf00      	nop

00900178 <copy_data>:
  900178:	b480      	push	{r7}
  90017a:	b085      	sub	sp, #20
  90017c:	af00      	add	r7, sp, #0
  90017e:	f240 0300 	movw	r3, #0
  900182:	f2c0 0390 	movt	r3, #144	; 0x90
  900186:	60fb      	str	r3, [r7, #12]
  900188:	f240 2300 	movw	r3, #512	; 0x200
  90018c:	f2c0 0390 	movt	r3, #144	; 0x90
  900190:	607b      	str	r3, [r7, #4]
  900192:	f240 0300 	movw	r3, #0
  900196:	f2c8 0310 	movt	r3, #32784	; 0x8010
  90019a:	60bb      	str	r3, [r7, #8]
  90019c:	e007      	b.n	9001ae <copy_data+0x36>
  90019e:	68fb      	ldr	r3, [r7, #12]
  9001a0:	1d1a      	adds	r2, r3, #4
  9001a2:	60fa      	str	r2, [r7, #12]
  9001a4:	68ba      	ldr	r2, [r7, #8]
  9001a6:	1d11      	adds	r1, r2, #4
  9001a8:	60b9      	str	r1, [r7, #8]
  9001aa:	6812      	ldr	r2, [r2, #0]
  9001ac:	601a      	str	r2, [r3, #0]
  9001ae:	68fa      	ldr	r2, [r7, #12]
  9001b0:	687b      	ldr	r3, [r7, #4]
  9001b2:	429a      	cmp	r2, r3
  9001b4:	d3f3      	bcc.n	90019e <copy_data+0x26>
  9001b6:	3714      	adds	r7, #20
  9001b8:	46bd      	mov	sp, r7
  9001ba:	f85d 7b04 	ldr.w	r7, [sp], #4
  9001be:	4770      	bx	lr

009001c0 <clean_bss>:
  9001c0:	b480      	push	{r7}
  9001c2:	b083      	sub	sp, #12
  9001c4:	af00      	add	r7, sp, #0
  9001c6:	f240 2300 	movw	r3, #512	; 0x200
  9001ca:	f2c0 0390 	movt	r3, #144	; 0x90
  9001ce:	607b      	str	r3, [r7, #4]
  9001d0:	f240 2309 	movw	r3, #521	; 0x209
  9001d4:	f2c0 0390 	movt	r3, #144	; 0x90
  9001d8:	603b      	str	r3, [r7, #0]
  9001da:	e004      	b.n	9001e6 <clean_bss+0x26>
  9001dc:	687b      	ldr	r3, [r7, #4]
  9001de:	1d1a      	adds	r2, r3, #4
  9001e0:	607a      	str	r2, [r7, #4]
  9001e2:	2200      	movs	r2, #0
  9001e4:	601a      	str	r2, [r3, #0]
  9001e6:	687a      	ldr	r2, [r7, #4]
  9001e8:	683b      	ldr	r3, [r7, #0]
  9001ea:	429a      	cmp	r2, r3
  9001ec:	d9f6      	bls.n	9001dc <clean_bss+0x1c>
  9001ee:	370c      	adds	r7, #12
  9001f0:	46bd      	mov	sp, r7
  9001f2:	f85d 7b04 	ldr.w	r7, [sp], #4
  9001f6:	4770      	bx	lr
